target datalayout = "e-m:e-p270:32:32-p271:32:32-p272:64:64-i64:64-i128:128-f80:128-n8:16:32:64-S128"
target triple = "x86_64-pc-linux-gnu"

%struct.Mpeg4DecContext = type { %struct.MpegEncContext, i32, i32, i32, i32, i32, i32, i32, i32, i32, [2 x [2 x i32]], [2 x [2 x i32]], [4 x [2 x i16]], [2 x i32], i32, i32, i32, i32, i32, i32, i32, i32, i32, i32, i32, i32, ptr, i32, i32, i32, i32, i32, i32, i32, %struct.Mpeg4VideoDSPContext, ptr, ptr, [12 x [64 x i32]], i32, [3 x [256 x i16]] }
%struct.MpegEncContext = type { ptr, i32, i32, i32, [12 x i32], i32, %struct.ScanTable, %struct.ScanTable, [64 x i8], [64 x i8], ptr, ptr, i32, i32, i32, i32, i32, i32, i32, i32, i32, i32, i32, i32, i32, i32, i32, i32, i32, i32, i32, i32, i64, i64, ptr, %struct.BufferPoolContext, i32, i32, %union.anon, i32, %struct.MPVWorkPicture, %struct.MPVWorkPicture, %struct.MPVWorkPicture, i32, [3 x i32], ptr, [3 x ptr], ptr, ptr, ptr, ptr, ptr, ptr, [3 x ptr], i32, ptr, ptr, ptr, ptr, %struct.ScratchpadContext, i32, i32, i32, i32, i32, i32, %struct.BlockDSPContext, %struct.H264ChromaContext, %struct.HpelDSPContext, %struct.IDCTDSPContext, %struct.QpelDSPContext, %struct.VideoDSPContext, %struct.H263DSPContext, ptr, [2 x [2 x ptr]], i32, i32, [2 x [4 x [2 x i32]]], [2 x [2 x i32]], [2 x [2 x [2 x i32]]], [2 x [64 x i16]], i32, i32, i32, i32, i32, [6 x i32], [6 x i32], [3 x ptr], ptr, [64 x i16], [64 x i16], [64 x i16], [64 x i16], i32, i32, %struct.GetBitContext, i32, i32, i32, i32, i32, i32, i32, i32, i32, i32, i32, i32, i32, i32, i32, i64, i64, i16, i16, i16, i16, i32, i32, i32, i32, i32, i32, i32, i32, i32, [3 x i32], i32, i32, i32, i32, i32, i32, %struct.GetBitContext, i32, [2 x [2 x i32]], i32, i32, i32, i32, i32, i32, i32, i32, i32, i32, i32, i32, i32, i32, [2 x i32], i32, i32, ptr, ptr, ptr, ptr, ptr, i32, i32, %struct.ERContext }
%struct.ScanTable = type { ptr, [64 x i8], [64 x i8] }
%struct.BufferPoolContext = type { ptr, ptr, ptr, ptr, ptr, i32, i32, i32 }
%union.anon = type { [32 x ptr] }
%struct.MPVWorkPicture = type { [3 x ptr], [3 x i64], ptr, ptr, [2 x ptr], ptr, ptr, [2 x ptr], i32 }
%struct.ScratchpadContext = type { ptr, ptr, %union.anon.0, i32 }
%union.anon.0 = type { ptr }
%struct.BlockDSPContext = type { ptr, ptr, [2 x ptr] }
%struct.H264ChromaContext = type { [4 x ptr], [4 x ptr] }
%struct.HpelDSPContext = type { [4 x [4 x ptr]], [4 x [4 x ptr]], [4 x [4 x ptr]], [4 x ptr] }
%struct.IDCTDSPContext = type { ptr, ptr, ptr, ptr, ptr, ptr, [64 x i8], i32, i32 }
%struct.QpelDSPContext = type { [2 x [16 x ptr]], [2 x [16 x ptr]], [2 x [16 x ptr]] }
%struct.VideoDSPContext = type { ptr, ptr }
%struct.H263DSPContext = type { ptr, ptr }
%struct.GetBitContext = type { ptr, ptr, i32, i32, i32 }
%struct.ERContext = type { ptr, ptr, i32, ptr, i32, i32, i32, i64, i64, i32, i32, ptr, ptr, [3 x ptr], ptr, ptr, [2 x [4 x [2 x i32]]], %struct.ERPicture, %struct.ERPicture, %struct.ERPicture, [2 x ptr], [2 x ptr], i16, i16, i32, i32, ptr, ptr }
%struct.ERPicture = type { ptr, ptr, ptr, [2 x ptr], [2 x ptr], ptr, i32 }
%struct.Mpeg4VideoDSPContext = type { ptr, ptr }
%struct.AVBufferRef = type { ptr, ptr, i64 }

@.str.52 = private unnamed_addr constant [47 x i8] c"Discarding excessive bitstream in packed xvid\0A\00", align 1

; Function Attrs: inlinehint nounwind uwtable
define internal i32 @init_get_bits(ptr noundef %0, ptr noundef %1, i32 noundef %2) #3 {
  %4 = alloca ptr, align 8
  %5 = alloca ptr, align 8
  %6 = alloca i32, align 4
  %7 = alloca i32, align 4
  %8 = alloca i32, align 4
  store ptr %0, ptr %4, align 8, !tbaa !116
  store ptr %1, ptr %5, align 8, !tbaa !9
  store i32 %2, ptr %6, align 4, !tbaa !47
  call void @llvm.lifetime.start.p0(i64 4, ptr %7) #13
  call void @llvm.lifetime.start.p0(i64 4, ptr %8) #13
  store i32 0, ptr %8, align 4, !tbaa !47
  %9 = load i32, ptr %6, align 4, !tbaa !47
  %10 = icmp sge i32 %9, 2147483135
  br i1 %10, label %17, label %11

11:                                               ; preds = %3
  %12 = load i32, ptr %6, align 4, !tbaa !47
  %13 = icmp slt i32 %12, 0
  br i1 %13, label %17, label %14

14:                                               ; preds = %11
  %15 = load ptr, ptr %5, align 8, !tbaa !9
  %16 = icmp ne ptr %15, null
  br i1 %16, label %18, label %17

17:                                               ; preds = %14, %11, %3
  store i32 0, ptr %6, align 4, !tbaa !47
  store ptr null, ptr %5, align 8, !tbaa !9
  store i32 -1094995529, ptr %8, align 4, !tbaa !47
  br label %18

18:                                               ; preds = %17, %14
  %19 = load i32, ptr %6, align 4, !tbaa !47
  %20 = add nsw i32 %19, 7
  %21 = ashr i32 %20, 3
  store i32 %21, ptr %7, align 4, !tbaa !47
  %22 = load ptr, ptr %5, align 8, !tbaa !9
  %23 = load ptr, ptr %4, align 8, !tbaa !116
  %24 = getelementptr inbounds nuw %struct.GetBitContext, ptr %23, i32 0, i32 0
  store ptr %22, ptr %24, align 8, !tbaa !119
  %25 = load i32, ptr %6, align 4, !tbaa !47
  %26 = load ptr, ptr %4, align 8, !tbaa !116
  %27 = getelementptr inbounds nuw %struct.GetBitContext, ptr %26, i32 0, i32 3
  store i32 %25, ptr %27, align 4, !tbaa !120
  %28 = load i32, ptr %6, align 4, !tbaa !47
  %29 = add nsw i32 %28, 8
  %30 = load ptr, ptr %4, align 8, !tbaa !116
  %31 = getelementptr inbounds nuw %struct.GetBitContext, ptr %30, i32 0, i32 4
  store i32 %29, ptr %31, align 8, !tbaa !312
  %32 = load ptr, ptr %5, align 8, !tbaa !9
  %33 = load i32, ptr %7, align 4, !tbaa !47
  %34 = sext i32 %33 to i64
  %35 = getelementptr inbounds i8, ptr %32, i64 %34
  %36 = load ptr, ptr %4, align 8, !tbaa !116
  %37 = getelementptr inbounds nuw %struct.GetBitContext, ptr %36, i32 0, i32 1
  store ptr %35, ptr %37, align 8, !tbaa !313
  %38 = load ptr, ptr %4, align 8, !tbaa !116
  %39 = getelementptr inbounds nuw %struct.GetBitContext, ptr %38, i32 0, i32 2
  store i32 0, ptr %39, align 8, !tbaa !118
  %40 = load i32, ptr %8, align 4, !tbaa !47
  call void @llvm.lifetime.end.p0(i64 4, ptr %8) #13
  call void @llvm.lifetime.end.p0(i64 4, ptr %7) #13
  ret i32 %40
}

; Function Attrs: inlinehint nounwind uwtable
define internal i32 @get_bits_count(ptr noundef %0) #3 {
  %2 = alloca ptr, align 8
  store ptr %0, ptr %2, align 8, !tbaa !116
  %3 = load ptr, ptr %2, align 8, !tbaa !116
  %4 = getelementptr inbounds nuw %struct.GetBitContext, ptr %3, i32 0, i32 2
  %5 = load i32, ptr %4, align 8, !tbaa !118
  ret i32 %5
}

; Function Attrs: inlinehint nounwind uwtable
define internal i32 @init_get_bits8(ptr noundef %0, ptr noundef %1, i32 noundef %2) #3 {
  %4 = alloca ptr, align 8
  %5 = alloca ptr, align 8
  %6 = alloca i32, align 4
  store ptr %0, ptr %4, align 8, !tbaa !116
  store ptr %1, ptr %5, align 8, !tbaa !9
  store i32 %2, ptr %6, align 4, !tbaa !47
  %7 = load i32, ptr %6, align 4, !tbaa !47
  %8 = icmp sgt i32 %7, 268435455
  br i1 %8, label %12, label %9

9:                                                ; preds = %3
  %10 = load i32, ptr %6, align 4, !tbaa !47
  %11 = icmp slt i32 %10, 0
  br i1 %11, label %12, label %13

12:                                               ; preds = %9, %3
  store i32 -1, ptr %6, align 4, !tbaa !47
  br label %13

13:                                               ; preds = %12, %9
  %14 = load ptr, ptr %4, align 8, !tbaa !116
  %15 = load ptr, ptr %5, align 8, !tbaa !9
  %16 = load i32, ptr %6, align 4, !tbaa !47
  %17 = mul nsw i32 %16, 8
  %18 = call i32 @init_get_bits(ptr noundef %14, ptr noundef %15, i32 noundef %17)
  ret i32 %18
}

; Function Attrs: inlinehint nounwind uwtable
define internal i32 @get_bits_left(ptr noundef %0) #3 {
  %2 = alloca ptr, align 8
  store ptr %0, ptr %2, align 8, !tbaa !116
  %3 = load ptr, ptr %2, align 8, !tbaa !116
  %4 = getelementptr inbounds nuw %struct.GetBitContext, ptr %3, i32 0, i32 3
  %5 = load i32, ptr %4, align 4, !tbaa !120
  %6 = load ptr, ptr %2, align 8, !tbaa !116
  %7 = call i32 @get_bits_count(ptr noundef %6)
  %8 = sub nsw i32 %5, %7
  ret i32 %8
}

; Function Attrs: nounwind uwtable
define i32 @ff_mpeg4_decode_picture_header(ptr noundef %0) #0 {
  %2 = alloca i32, align 4
  %3 = alloca ptr, align 8
  %4 = alloca ptr, align 8
  %5 = alloca i32, align 4
  %6 = alloca i32, align 4
  %7 = alloca ptr, align 8
  %8 = alloca i32, align 4
  %9 = alloca i32, align 4
  %10 = alloca i32, align 4
  store ptr %0, ptr %3, align 8, !tbaa !4
  call void @llvm.lifetime.start.p0(i64 8, ptr %4) #13
  %11 = load ptr, ptr %3, align 8, !tbaa !4
  store ptr %11, ptr %4, align 8, !tbaa !14
  %12 = load ptr, ptr %3, align 8, !tbaa !4
  %13 = getelementptr inbounds nuw %struct.MpegEncContext, ptr %12, i32 0, i32 43
  store i32 0, ptr %13, align 8, !tbaa !223
  %14 = load ptr, ptr %4, align 8, !tbaa !14
  %15 = getelementptr inbounds nuw %struct.Mpeg4DecContext, ptr %14, i32 0, i32 26
  %16 = load ptr, ptr %15, align 8, !tbaa !229
  %17 = icmp ne ptr %16, null
  br i1 %17, label %18, label %130

18:                                               ; preds = %1
  call void @llvm.lifetime.start.p0(i64 4, ptr %5) #13
  %19 = load ptr, ptr %3, align 8, !tbaa !4
  %20 = getelementptr inbounds nuw %struct.MpegEncContext, ptr %19, i32 0, i32 134
  %21 = call i32 @get_bits_left(ptr noundef %20)
  %22 = udiv i32 %21, 8
  store i32 %22, ptr %5, align 4, !tbaa !47
  call void @llvm.lifetime.start.p0(i64 4, ptr %6) #13
  %23 = load ptr, ptr %4, align 8, !tbaa !14
  %24 = getelementptr inbounds nuw %struct.Mpeg4DecContext, ptr %23, i32 0, i32 26
  %25 = load ptr, ptr %24, align 8, !tbaa !229
  %26 = getelementptr inbounds nuw %struct.AVBufferRef, ptr %25, i32 0, i32 2
  %27 = load i64, ptr %26, align 8, !tbaa !230
  %28 = trunc i64 %27 to i32
  store i32 %28, ptr %6, align 4, !tbaa !47
  call void @llvm.lifetime.start.p0(i64 8, ptr %7) #13
  %29 = load ptr, ptr %3, align 8, !tbaa !4
  %30 = getelementptr inbounds nuw %struct.MpegEncContext, ptr %29, i32 0, i32 134
  %31 = getelementptr inbounds nuw %struct.GetBitContext, ptr %30, i32 0, i32 0
  %32 = load ptr, ptr %31, align 8, !tbaa !233
  store ptr %32, ptr %7, align 8, !tbaa !9
  %33 = load ptr, ptr %3, align 8, !tbaa !4
  %34 = getelementptr inbounds nuw %struct.MpegEncContext, ptr %33, i32 0, i32 125
  %35 = load i32, ptr %34, align 4, !tbaa !169
  %36 = icmp ne i32 %35, 0
  br i1 %36, label %37, label %90

37:                                               ; preds = %18
  call void @llvm.lifetime.start.p0(i64 4, ptr %8) #13
  store i32 0, ptr %8, align 4, !tbaa !47
  br label %38

38:                                               ; preds = %85, %37
  %39 = load i32, ptr %8, align 4, !tbaa !47
  %40 = load i32, ptr %5, align 4, !tbaa !47
  %41 = sub nsw i32 %40, 3
  %42 = icmp slt i32 %39, %41
  br i1 %42, label %44, label %43

43:                                               ; preds = %38
  store i32 2, ptr %9, align 4
  br label %88

44:                                               ; preds = %38
  %45 = load ptr, ptr %7, align 8, !tbaa !9
  %46 = load i32, ptr %8, align 4, !tbaa !47
  %47 = sext i32 %46 to i64
  %48 = getelementptr inbounds i8, ptr %45, i64 %47
  %49 = load i8, ptr %48, align 1, !tbaa !95
  %50 = zext i8 %49 to i32
  %51 = icmp eq i32 %50, 0
  br i1 %51, label %52, label %84

52:                                               ; preds = %44
  %53 = load ptr, ptr %7, align 8, !tbaa !9
  %54 = load i32, ptr %8, align 4, !tbaa !47
  %55 = add nsw i32 %54, 1
  %56 = sext i32 %55 to i64
  %57 = getelementptr inbounds i8, ptr %53, i64 %56
  %58 = load i8, ptr %57, align 1, !tbaa !95
  %59 = zext i8 %58 to i32
  %60 = icmp eq i32 %59, 0
  br i1 %60, label %61, label %84

61:                                               ; preds = %52
  %62 = load ptr, ptr %7, align 8, !tbaa !9
  %63 = load i32, ptr %8, align 4, !tbaa !47
  %64 = add nsw i32 %63, 2
  %65 = sext i32 %64 to i64
  %66 = getelementptr inbounds i8, ptr %62, i64 %65
  %67 = load i8, ptr %66, align 1, !tbaa !95
  %68 = zext i8 %67 to i32
  %69 = icmp eq i32 %68, 1
  br i1 %69, label %70, label %84

70:                                               ; preds = %61
  %71 = load ptr, ptr %7, align 8, !tbaa !9
  %72 = load i32, ptr %8, align 4, !tbaa !47
  %73 = add nsw i32 %72, 3
  %74 = sext i32 %73 to i64
  %75 = getelementptr inbounds i8, ptr %71, i64 %74
  %76 = load i8, ptr %75, align 1, !tbaa !95
  %77 = zext i8 %76 to i32
  %78 = icmp eq i32 %77, 176
  br i1 %78, label %79, label %83

79:                                               ; preds = %70
  %80 = load ptr, ptr %3, align 8, !tbaa !4
  %81 = getelementptr inbounds nuw %struct.MpegEncContext, ptr %80, i32 0, i32 10
  %82 = load ptr, ptr %81, align 8, !tbaa !70
  call void (ptr, i32, ptr, ...) @av_log(ptr noundef %82, i32 noundef 24, ptr noundef @.str.52)
  store i32 0, ptr %6, align 4, !tbaa !47
  br label %83

83:                                               ; preds = %79, %70
  store i32 2, ptr %9, align 4
  br label %88

84:                                               ; preds = %61, %52, %44
  br label %85

85:                                               ; preds = %84
  %86 = load i32, ptr %8, align 4, !tbaa !47
  %87 = add nsw i32 %86, 1
  store i32 %87, ptr %8, align 4, !tbaa !47
  br label %38, !llvm.loop !234

88:                                               ; preds = %83, %43
  call void @llvm.lifetime.end.p0(i64 4, ptr %8) #13
  br label %89

89:                                               ; preds = %88
  br label %90

90:                                               ; preds = %89, %18
  %91 = load ptr, ptr %4, align 8, !tbaa !14
  %92 = getelementptr inbounds nuw %struct.Mpeg4DecContext, ptr %91, i32 0, i32 26
  %93 = load ptr, ptr %92, align 8, !tbaa !229
  %94 = getelementptr inbounds nuw %struct.AVBufferRef, ptr %93, i32 0, i32 2
  store i64 0, ptr %94, align 8, !tbaa !230
  %95 = load i32, ptr %6, align 4, !tbaa !47
  %96 = icmp ne i32 %95, 0
  br i1 %96, label %97, label %123

97:                                               ; preds = %90
  %98 = load ptr, ptr %3, align 8, !tbaa !4
  %99 = getelementptr inbounds nuw %struct.MpegEncContext, ptr %98, i32 0, i32 125
  %100 = load i32, ptr %99, align 4, !tbaa !169
  %101 = icmp ne i32 %100, 0
  br i1 %101, label %105, label %102

102:                                              ; preds = %97
  %103 = load i32, ptr %5, align 4, !tbaa !47
  %104 = icmp sle i32 %103, 19
  br i1 %104, label %105, label %123

105:                                              ; preds = %102, %97
  call void @llvm.lifetime.start.p0(i64 4, ptr %10) #13
  %106 = load ptr, ptr %3, align 8, !tbaa !4
  %107 = getelementptr inbounds nuw %struct.MpegEncContext, ptr %106, i32 0, i32 134
  %108 = load ptr, ptr %4, align 8, !tbaa !14
  %109 = getelementptr inbounds nuw %struct.Mpeg4DecContext, ptr %108, i32 0, i32 26
  %110 = load ptr, ptr %109, align 8, !tbaa !229
  %111 = getelementptr inbounds nuw %struct.AVBufferRef, ptr %110, i32 0, i32 1
  %112 = load ptr, ptr %111, align 8, !tbaa !235
  %113 = load i32, ptr %6, align 4, !tbaa !47
  %114 = call i32 @init_get_bits8(ptr noundef %107, ptr noundef %112, i32 noundef %113)
  store i32 %114, ptr %10, align 4, !tbaa !47
  %115 = load i32, ptr %10, align 4, !tbaa !47
  %116 = icmp slt i32 %115, 0
  br i1 %116, label %117, label %119

117:                                              ; preds = %105
  %118 = load i32, ptr %10, align 4, !tbaa !47
  store i32 %118, ptr %2, align 4
  store i32 1, ptr %9, align 4
  br label %120

119:                                              ; preds = %105
  store i32 0, ptr %9, align 4
  br label %120

120:                                              ; preds = %119, %117
  call void @llvm.lifetime.end.p0(i64 4, ptr %10) #13
  %121 = load i32, ptr %9, align 4
  switch i32 %121, label %127 [
    i32 0, label %122
  ]

122:                                              ; preds = %120
  br label %126

123:                                              ; preds = %102, %90
  %124 = load ptr, ptr %4, align 8, !tbaa !14
  %125 = getelementptr inbounds nuw %struct.Mpeg4DecContext, ptr %124, i32 0, i32 26
  call void @av_buffer_unref(ptr noundef %125)
  br label %126

126:                                              ; preds = %123, %122
  store i32 0, ptr %9, align 4
  br label %127

127:                                              ; preds = %126, %120
  call void @llvm.lifetime.end.p0(i64 8, ptr %7) #13
  call void @llvm.lifetime.end.p0(i64 4, ptr %6) #13
  call void @llvm.lifetime.end.p0(i64 4, ptr %5) #13
  %128 = load i32, ptr %9, align 4
  switch i32 %128, label %135 [
    i32 0, label %129
  ]

129:                                              ; preds = %127
  br label %130

130:                                              ; preds = %129, %1
  %131 = load ptr, ptr %4, align 8, !tbaa !14
  %132 = load ptr, ptr %3, align 8, !tbaa !4
  %133 = getelementptr inbounds nuw %struct.MpegEncContext, ptr %132, i32 0, i32 134
  %134 = call i32 @ff_mpeg4_parse_picture_header(ptr noundef %131, ptr noundef %133, i32 noundef 0, i32 noundef 0)
  store i32 %134, ptr %2, align 4
  store i32 1, ptr %9, align 4
  br label %135

135:                                              ; preds = %130, %127
  call void @llvm.lifetime.end.p0(i64 8, ptr %4) #13
  %136 = load i32, ptr %2, align 4
  ret i32 %136
}