; Function Attrs: nounwind uwtable
define range(i32 -1163346256, 101) i32 @ff_mpeg4_decode_picture_header(ptr noundef initializes((1280, 1284)) %0) local_unnamed_addr #0 {
  %2 = getelementptr inbounds nuw i8, ptr %0, i64 1280
  store i32 0, ptr %2, align 8, !tbaa !216
  %3 = getelementptr inbounds nuw i8, ptr %0, i64 4952
  %4 = load ptr, ptr %3, align 8, !tbaa !222
  %.not = icmp eq ptr %4, null
  br i1 %.not, label %53, label %5

5:                                                ; preds = %1
  %6 = getelementptr inbounds nuw i8, ptr %0, i64 4160
  %7 = getelementptr i8, ptr %0, i64 4176
  %.val = load i32, ptr %7, align 8, !tbaa !96
  %8 = getelementptr i8, ptr %0, i64 4180
  %.val43 = load i32, ptr %8, align 4, !tbaa !108
  %9 = sub i32 %.val43, %.val
  %10 = getelementptr inbounds nuw i8, ptr %4, i64 16
  %11 = load i64, ptr %10, align 8, !tbaa !223
  %12 = trunc i64 %11 to i32
  %13 = load ptr, ptr %6, align 8, !tbaa !226
  %14 = getelementptr inbounds nuw i8, ptr %0, i64 4116
  %15 = load i32, ptr %14, align 4, !tbaa !159
  %.not41 = icmp ne i32 %15, 0
  %16 = icmp ugt i32 %9, 31
  %or.cond53 = select i1 %.not41, i1 %16, i1 false
  br i1 %or.cond53, label %.lr.ph.preheader, label %.loopexit

.lr.ph.preheader:                                 ; preds = %5
  %17 = lshr i32 %9, 3
  %smax = add nsw i32 %17, -3
  %wide.trip.count = zext nneg i32 %smax to i64
  br label %.lr.ph

.lr.ph:                                           ; preds = %.lr.ph.preheader, %37
  %indvars.iv = phi i64 [ 0, %.lr.ph.preheader ], [ %indvars.iv.next, %37 ]
  %18 = getelementptr inbounds nuw i8, ptr %13, i64 %indvars.iv
  %19 = load i8, ptr %18, align 1, !tbaa !88
  %20 = icmp eq i8 %19, 0
  br i1 %20, label %21, label %37

21:                                               ; preds = %.lr.ph
  %22 = getelementptr inbounds nuw i8, ptr %18, i64 1
  %23 = load i8, ptr %22, align 1, !tbaa !88
  %24 = icmp eq i8 %23, 0
  br i1 %24, label %25, label %37

25:                                               ; preds = %21
  %26 = getelementptr inbounds nuw i8, ptr %18, i64 2
  %27 = load i8, ptr %26, align 1, !tbaa !88
  %28 = icmp eq i8 %27, 1
  br i1 %28, label %29, label %37

29:                                               ; preds = %25
  %30 = getelementptr inbounds nuw i8, ptr %18, i64 3
  %31 = load i8, ptr %30, align 1, !tbaa !88
  %32 = icmp eq i8 %31, -80
  br i1 %32, label %.thread, label %.loopexit

.thread:                                          ; preds = %29
  %33 = getelementptr inbounds nuw i8, ptr %0, i64 472
  %34 = load ptr, ptr %33, align 8, !tbaa !61
  tail call void (ptr, i32, ptr, ...) @av_log(ptr noundef %34, i32 noundef 24, ptr noundef nonnull @.str.52) #16
  %35 = load ptr, ptr %3, align 8, !tbaa !222
  %36 = getelementptr inbounds nuw i8, ptr %35, i64 16
  store i64 0, ptr %36, align 8, !tbaa !223
  br label %.thread46

37:                                               ; preds = %.lr.ph, %21, %25
  %indvars.iv.next = add nuw nsw i64 %indvars.iv, 1
  %exitcond.not = icmp eq i64 %indvars.iv.next, %wide.trip.count
  br i1 %exitcond.not, label %.loopexit, label %.lr.ph, !llvm.loop !227

.loopexit:                                        ; preds = %37, %29, %5
  store i64 0, ptr %10, align 8, !tbaa !223
  %.not42 = icmp eq i32 %12, 0
  br i1 %.not42, label %.thread46, label %38

38:                                               ; preds = %.loopexit
  %39 = icmp ne i32 %15, 0
  %40 = icmp ult i32 %9, 160
  %or.cond = select i1 %39, i1 true, i1 %40
  br i1 %or.cond, label %41, label %.thread46

.thread46:                                        ; preds = %.loopexit, %38, %.thread
  tail call void @av_buffer_unref(ptr noundef nonnull %3) #16
  br label %53

41:                                               ; preds = %38
  %42 = getelementptr inbounds nuw i8, ptr %4, i64 8
  %43 = load ptr, ptr %42, align 8, !tbaa !228
  %or.cond.i = icmp ugt i32 %12, 268435455
  %44 = shl nuw nsw i32 %12, 3
  %45 = select i1 %or.cond.i, i32 -8, i32 %44
  %or.cond.i.i = icmp ult i32 %45, 2147483135
  %46 = icmp ne ptr %43, null
  %or.cond3.i.i = and i1 %or.cond.i.i, %46
  %.018.i.i = select i1 %or.cond3.i.i, i32 %45, i32 0
  %.017.i.i = select i1 %or.cond.i.i, ptr %43, ptr null
  %47 = lshr exact i32 %.018.i.i, 3
  store ptr %.017.i.i, ptr %6, align 8, !tbaa !98
  store i32 %.018.i.i, ptr %8, align 4, !tbaa !108
  %48 = add nuw nsw i32 %.018.i.i, 8
  %49 = getelementptr inbounds nuw i8, ptr %0, i64 4184
  store i32 %48, ptr %49, align 8, !tbaa !229
  %50 = zext nneg i32 %47 to i64
  %51 = getelementptr inbounds nuw i8, ptr %.017.i.i, i64 %50
  %52 = getelementptr inbounds nuw i8, ptr %0, i64 4168
  store ptr %51, ptr %52, align 8, !tbaa !230
  store i32 0, ptr %7, align 8, !tbaa !96
  br i1 %or.cond3.i.i, label %53, label %56

53:                                               ; preds = %.thread46, %41, %1
  %54 = getelementptr inbounds nuw i8, ptr %0, i64 4160
  %55 = tail call i32 @ff_mpeg4_parse_picture_header(ptr noundef nonnull %0, ptr noundef nonnull %54, i32 noundef 0, i32 noundef 0)
  br label %56

56:                                               ; preds = %41, %53
  %.3 = phi i32 [ %55, %53 ], [ -1094995529, %41 ]
  ret i32 %.3
}